target datalayout = "e-m:e-p270:32:32-p271:32:32-p272:64:64-i64:64-i128:128-f80:128-n8:16:32:64-S128"
target triple = "x86_64-pc-linux-gnu"

%struct._value_string = type { i32, ptr }

@.str.179 = private unnamed_addr constant [3 x i8] c", \00", align 1
@.str.180 = private unnamed_addr constant [5 x i8] c"0x%x\00", align 1

; Function Attrs: null_pointer_is_valid sspstrong uwtable
define internal void @_fill_label_value_string_bitmask(ptr noundef %0, i32 noundef %1, ptr noundef %2) #0 {
  %4 = alloca ptr, align 8
  %5 = alloca i32, align 4
  %6 = alloca ptr, align 8
  %7 = alloca [16 x i8], align 16
  store ptr %0, ptr %4, align 8
  store i32 %1, ptr %5, align 4
  store ptr %2, ptr %6, align 8
  call void @llvm.lifetime.start.p0(i64 16, ptr %7) #4
  %8 = load ptr, ptr %4, align 8
  %9 = getelementptr i8, ptr %8, i64 0
  store i8 0, ptr %9, align 1
  br label %10

10:                                               ; preds = %42, %3
  %11 = load ptr, ptr %6, align 8
  %12 = getelementptr inbounds nuw %struct._value_string, ptr %11, i32 0, i32 1
  %13 = load ptr, ptr %12, align 8
  %14 = icmp ne ptr %13, null
  br i1 %14, label %15, label %45

15:                                               ; preds = %10
  %16 = load i32, ptr %5, align 4
  %17 = load ptr, ptr %6, align 8
  %18 = getelementptr inbounds nuw %struct._value_string, ptr %17, i32 0, i32 0
  %19 = load i32, ptr %18, align 8
  %20 = and i32 %16, %19
  %21 = icmp ne i32 %20, 0
  br i1 %21, label %22, label %42

22:                                               ; preds = %15
  %23 = load ptr, ptr %6, align 8
  %24 = getelementptr inbounds nuw %struct._value_string, ptr %23, i32 0, i32 0
  %25 = load i32, ptr %24, align 8
  %26 = xor i32 %25, -1
  %27 = load i32, ptr %5, align 4
  %28 = and i32 %27, %26
  store i32 %28, ptr %5, align 4
  %29 = load ptr, ptr %4, align 8
  %30 = getelementptr i8, ptr %29, i64 0
  %31 = load i8, ptr %30, align 1
  %32 = icmp ne i8 %31, 0
  br i1 %32, label %33, label %36

33:                                               ; preds = %22
  %34 = load ptr, ptr %4, align 8
  %35 = call i64 @g_strlcat(ptr noundef %34, ptr noundef @.str.179, i64 noundef 240)
  br label %36

36:                                               ; preds = %33, %22
  %37 = load ptr, ptr %4, align 8
  %38 = load ptr, ptr %6, align 8
  %39 = getelementptr inbounds nuw %struct._value_string, ptr %38, i32 0, i32 1
  %40 = load ptr, ptr %39, align 8
  %41 = call i64 @g_strlcat(ptr noundef %37, ptr noundef %40, i64 noundef 240)
  br label %42

42:                                               ; preds = %36, %15
  %43 = load ptr, ptr %6, align 8
  %44 = getelementptr %struct._value_string, ptr %43, i32 1
  store ptr %44, ptr %6, align 8
  br label %10, !llvm.loop !8

45:                                               ; preds = %10
  %46 = load i32, ptr %5, align 4
  %47 = icmp ne i32 %46, 0
  br i1 %47, label %48, label %63

48:                                               ; preds = %45
  %49 = load ptr, ptr %4, align 8
  %50 = getelementptr i8, ptr %49, i64 0
  %51 = load i8, ptr %50, align 1
  %52 = icmp ne i8 %51, 0
  br i1 %52, label %53, label %56

53:                                               ; preds = %48
  %54 = load ptr, ptr %4, align 8
  %55 = call i64 @g_strlcat(ptr noundef %54, ptr noundef @.str.179, i64 noundef 240)
  br label %56

56:                                               ; preds = %53, %48
  %57 = getelementptr inbounds [16 x i8], ptr %7, i64 0, i64 0
  %58 = load i32, ptr %5, align 4
  %59 = call i32 (ptr, i64, i32, i64, ptr, ...) @__snprintf_chk(ptr noundef %57, i64 noundef 16, i32 noundef 2, i64 noundef 16, ptr noundef @.str.180, i32 noundef %58)
  %60 = load ptr, ptr %4, align 8
  %61 = getelementptr inbounds [16 x i8], ptr %7, i64 0, i64 0
  %62 = call i64 @g_strlcat(ptr noundef %60, ptr noundef %61, i64 noundef 240)
  br label %63

63:                                               ; preds = %56, %45
  call void @llvm.lifetime.end.p0(i64 16, ptr %7) #4
  ret void
}