; Function Attrs: null_pointer_is_valid sspstrong uwtable
define internal fastcc void @_fill_label_value_string_bitmask(ptr noundef initializes((0, 1)) %0, i32 noundef %1, ptr noundef readonly captures(none) %2) unnamed_addr #0 {
  %4 = alloca [16 x i8], align 16
  call void @llvm.lifetime.start.p0(i64 16, ptr nonnull %4) #5
  store i8 0, ptr %0, align 1
  %5 = getelementptr inbounds nuw i8, ptr %2, i64 8
  %6 = load ptr, ptr %5, align 8
  %.not20 = icmp eq ptr %6, null
  br i1 %.not20, label %._crit_edge, label %.lr.ph

.lr.ph:                                           ; preds = %3, %20
  %7 = phi ptr [ %23, %20 ], [ %6, %3 ]
  %8 = phi ptr [ %22, %20 ], [ %5, %3 ]
  %.022 = phi ptr [ %21, %20 ], [ %2, %3 ]
  %.01521 = phi i32 [ %.1, %20 ], [ %1, %3 ]
  %9 = load i32, ptr %.022, align 8
  %10 = and i32 %9, %.01521
  %.not18 = icmp eq i32 %10, 0
  br i1 %.not18, label %20, label %11

11:                                               ; preds = %.lr.ph
  %12 = xor i32 %9, -1
  %13 = and i32 %.01521, %12
  %14 = load i8, ptr %0, align 1
  %.not19 = icmp eq i8 %14, 0
  br i1 %.not19, label %17, label %15

15:                                               ; preds = %11
  %16 = tail call i64 @g_strlcat(ptr noundef %0, ptr noundef nonnull @.str.179, i64 noundef 240)
  %.pre = load ptr, ptr %8, align 8
  br label %17

17:                                               ; preds = %15, %11
  %18 = phi ptr [ %.pre, %15 ], [ %7, %11 ]
  %19 = tail call i64 @g_strlcat(ptr noundef %0, ptr noundef %18, i64 noundef 240)
  br label %20

20:                                               ; preds = %17, %.lr.ph
  %.1 = phi i32 [ %13, %17 ], [ %.01521, %.lr.ph ]
  %21 = getelementptr i8, ptr %.022, i64 16
  %22 = getelementptr i8, ptr %.022, i64 24
  %23 = load ptr, ptr %22, align 8
  %.not = icmp eq ptr %23, null
  br i1 %.not, label %._crit_edge, label %.lr.ph, !llvm.loop !6

._crit_edge:                                      ; preds = %20, %3
  %.015.lcssa = phi i32 [ %1, %3 ], [ %.1, %20 ]
  %.not16 = icmp eq i32 %.015.lcssa, 0
  br i1 %.not16, label %31, label %24

24:                                               ; preds = %._crit_edge
  %25 = load i8, ptr %0, align 1
  %.not17 = icmp eq i8 %25, 0
  br i1 %.not17, label %28, label %26

26:                                               ; preds = %24
  %27 = tail call i64 @g_strlcat(ptr noundef %0, ptr noundef nonnull @.str.179, i64 noundef 240)
  br label %28

28:                                               ; preds = %26, %24
  %29 = call i32 (ptr, i64, i32, i64, ptr, ...) @__snprintf_chk(ptr noundef nonnull %4, i64 noundef 16, i32 noundef 2, i64 noundef 16, ptr noundef nonnull @.str.180, i32 noundef %.015.lcssa)
  %30 = call i64 @g_strlcat(ptr noundef %0, ptr noundef nonnull %4, i64 noundef 240)
  br label %31

31:                                               ; preds = %28, %._crit_edge
  call void @llvm.lifetime.end.p0(i64 16, ptr nonnull %4) #5
  ret void
}